target datalayout = "e-m:e-p270:32:32-p271:32:32-p272:64:64-i64:64-i128:128-f80:128-n8:16:32:64-S128"
target triple = "x86_64-unknown-linux-gnu"

%struct.PRManagerHelper = type { %struct.PRManager, ptr, %struct.QemuMutex, ptr }
%struct.PRManager = type { %struct.Object }
%struct.Object = type { ptr, ptr, ptr, i32, ptr }
%struct.QemuMutex = type { %union.pthread_mutex_t, i8 }
%union.pthread_mutex_t = type { %struct.__pthread_mutex_s }
%struct.__pthread_mutex_s = type { i32, i32, i32, i32, i32, i16, i16, %struct.__pthread_internal_list }
%struct.__pthread_internal_list = type { ptr, ptr }
%struct.iovec = type { ptr, i64 }

@.str.2 = private unnamed_addr constant [33 x i8] c"../qemu/scsi/pr-manager-helper.c\00", align 1
@.str.8 = private unnamed_addr constant [12 x i8] c"qio-channel\00", align 1
@.str.9 = private unnamed_addr constant [99 x i8] c"/home/dtcxzyw/WorkSpace/Projects/compilers/llvm-opt-benchmark/bench/qemu/qemu/include/io/channel.h\00", align 1
@__func__.QIO_CHANNEL = private unnamed_addr constant [12 x i8] c"QIO_CHANNEL\00", align 1
@.str.10 = private unnamed_addr constant [35 x i8] c"n_written != QIO_CHANNEL_ERR_BLOCK\00", align 1
@__PRETTY_FUNCTION__.pr_manager_helper_write = private unnamed_addr constant [81 x i8] c"int pr_manager_helper_write(PRManagerHelper *, int, const void *, int, Error **)\00", align 1

; Function Attrs: nounwind sspstrong uwtable
define internal void @pr_manager_send_status_changed_event(ptr noundef %pr_mgr) #0 {
entry:
  %pr_mgr.addr = alloca ptr, align 8
  %id = alloca ptr, align 8
  store ptr %pr_mgr, ptr %pr_mgr.addr, align 8
  %0 = load ptr, ptr %pr_mgr.addr, align 8
  %call = call ptr @object_get_canonical_path_component(ptr noundef %0)
  store ptr %call, ptr %id, align 8
  %1 = load ptr, ptr %id, align 8
  %tobool = icmp ne ptr %1, null
  br i1 %tobool, label %if.then, label %if.end

if.then:                                          ; preds = %entry
  %2 = load ptr, ptr %id, align 8
  %3 = load ptr, ptr %pr_mgr.addr, align 8
  %ioc = getelementptr inbounds %struct.PRManagerHelper, ptr %3, i32 0, i32 3
  %4 = load ptr, ptr %ioc, align 8
  %tobool1 = icmp ne ptr %4, null
  %lnot = xor i1 %tobool1, true
  %lnot2 = xor i1 %lnot, true
  call void @qapi_event_send_pr_manager_status_changed(ptr noundef %2, i1 noundef zeroext %lnot2)
  br label %if.end

if.end:                                           ; preds = %if.then, %entry
  ret void
}

; Function Attrs: nounwind sspstrong uwtable
define internal ptr @QIO_CHANNEL(ptr noundef %obj) #0 {
entry:
  %obj.addr = alloca ptr, align 8
  store ptr %obj, ptr %obj.addr, align 8
  %0 = load ptr, ptr %obj.addr, align 8
  %call = call ptr @object_dynamic_cast_assert(ptr noundef %0, ptr noundef @.str.8, ptr noundef @.str.9, i32 noundef 30, ptr noundef @__func__.QIO_CHANNEL)
  ret ptr %call
}

; Function Attrs: nounwind sspstrong uwtable
define internal i32 @pr_manager_helper_write(ptr noundef %pr_mgr, i32 noundef %fd, ptr noundef %buf, i32 noundef %sz, ptr noundef %errp) #0 {
entry:
  %retval = alloca i32, align 4
  %pr_mgr.addr = alloca ptr, align 8
  %fd.addr = alloca i32, align 4
  %buf.addr = alloca ptr, align 8
  %sz.addr = alloca i32, align 4
  %errp.addr = alloca ptr, align 8
  %nfds = alloca i64, align 8
  %iov = alloca %struct.iovec, align 8
  %n_written = alloca i64, align 8
  store ptr %pr_mgr, ptr %pr_mgr.addr, align 8
  store i32 %fd, ptr %fd.addr, align 4
  store ptr %buf, ptr %buf.addr, align 8
  store i32 %sz, ptr %sz.addr, align 4
  store ptr %errp, ptr %errp.addr, align 8
  %0 = load i32, ptr %fd.addr, align 4
  %cmp = icmp ne i32 %0, -1
  %conv = zext i1 %cmp to i32
  %conv1 = sext i32 %conv to i64
  store i64 %conv1, ptr %nfds, align 8
  br label %while.cond

while.cond:                                       ; preds = %if.end16, %entry
  %1 = load i32, ptr %sz.addr, align 4
  %cmp2 = icmp sgt i32 %1, 0
  br i1 %cmp2, label %while.body, label %while.end

while.body:                                       ; preds = %while.cond
  %2 = load ptr, ptr %buf.addr, align 8
  %iov_base = getelementptr inbounds %struct.iovec, ptr %iov, i32 0, i32 0
  store ptr %2, ptr %iov_base, align 8
  %3 = load i32, ptr %sz.addr, align 4
  %conv4 = sext i32 %3 to i64
  %iov_len = getelementptr inbounds %struct.iovec, ptr %iov, i32 0, i32 1
  store i64 %conv4, ptr %iov_len, align 8
  %4 = load ptr, ptr %pr_mgr.addr, align 8
  %ioc = getelementptr inbounds %struct.PRManagerHelper, ptr %4, i32 0, i32 3
  %5 = load ptr, ptr %ioc, align 8
  %call = call ptr @QIO_CHANNEL(ptr noundef %5)
  %6 = load i64, ptr %nfds, align 8
  %tobool = icmp ne i64 %6, 0
  br i1 %tobool, label %cond.true, label %cond.false

cond.true:                                        ; preds = %while.body
  br label %cond.end

cond.false:                                       ; preds = %while.body
  br label %cond.end

cond.end:                                         ; preds = %cond.false, %cond.true
  %cond = phi ptr [ %fd.addr, %cond.true ], [ null, %cond.false ]
  %7 = load i64, ptr %nfds, align 8
  %8 = load ptr, ptr %errp.addr, align 8
  %call5 = call i64 @qio_channel_writev_full(ptr noundef %call, ptr noundef %iov, i64 noundef 1, ptr noundef %cond, i64 noundef %7, i32 noundef 0, ptr noundef %8)
  store i64 %call5, ptr %n_written, align 8
  %9 = load i64, ptr %n_written, align 8
  %cmp6 = icmp sle i64 %9, 0
  br i1 %cmp6, label %if.then, label %if.end16

if.then:                                          ; preds = %cond.end
  %10 = load i64, ptr %n_written, align 8
  %cmp8 = icmp ne i64 %10, -2
  br i1 %cmp8, label %if.then10, label %if.else

if.then10:                                        ; preds = %if.then
  br label %if.end

if.else:                                          ; preds = %if.then
  call void @__assert_fail(ptr noundef @.str.10, ptr noundef @.str.2, i32 noundef 83, ptr noundef @__PRETTY_FUNCTION__.pr_manager_helper_write) #8
  unreachable

if.end:                                           ; preds = %if.then10
  %11 = load ptr, ptr %pr_mgr.addr, align 8
  %ioc11 = getelementptr inbounds %struct.PRManagerHelper, ptr %11, i32 0, i32 3
  %12 = load ptr, ptr %ioc11, align 8
  call void @object_unref(ptr noundef %12)
  %13 = load ptr, ptr %pr_mgr.addr, align 8
  %ioc12 = getelementptr inbounds %struct.PRManagerHelper, ptr %13, i32 0, i32 3
  store ptr null, ptr %ioc12, align 8
  %14 = load ptr, ptr %pr_mgr.addr, align 8
  call void @pr_manager_send_status_changed_event(ptr noundef %14)
  %15 = load i64, ptr %n_written, align 8
  %cmp13 = icmp slt i64 %15, 0
  %cond15 = select i1 %cmp13, i32 -22, i32 0
  store i32 %cond15, ptr %retval, align 4
  br label %return

if.end16:                                         ; preds = %cond.end
  store i64 0, ptr %nfds, align 8
  %16 = load i64, ptr %n_written, align 8
  %17 = load ptr, ptr %buf.addr, align 8
  %add.ptr = getelementptr i8, ptr %17, i64 %16
  store ptr %add.ptr, ptr %buf.addr, align 8
  %18 = load i64, ptr %n_written, align 8
  %19 = load i32, ptr %sz.addr, align 4
  %conv17 = sext i32 %19 to i64
  %sub = sub i64 %conv17, %18
  %conv18 = trunc i64 %sub to i32
  store i32 %conv18, ptr %sz.addr, align 4
  br label %while.cond, !llvm.loop !7

while.end:                                        ; preds = %while.cond
  store i32 0, ptr %retval, align 4
  br label %return

return:                                           ; preds = %while.end, %if.end
  %20 = load i32, ptr %retval, align 4
  ret i32 %20
}