; Function Attrs: nounwind sspstrong uwtable
define internal fastcc range(i32 -22, 1) i32 @pr_manager_helper_write(ptr noundef %pr_mgr, i32 noundef %fd, ptr noundef %buf, i32 noundef range(i32 0, 8193) %sz, ptr noundef %errp) unnamed_addr #0 {
entry:
  %fd.addr = alloca i32, align 4
  %iov = alloca %struct.iovec, align 8
  store i32 %fd, ptr %fd.addr, align 4
  %cmp213.not = icmp eq i32 %sz, 0
  br i1 %cmp213.not, label %return, label %while.body.lr.ph

while.body.lr.ph:                                 ; preds = %entry
  %cmp = icmp ne i32 %fd, -1
  %conv1 = zext i1 %cmp to i64
  %iov_len = getelementptr inbounds nuw i8, ptr %iov, i64 8
  %ioc = getelementptr inbounds nuw i8, ptr %pr_mgr, i64 96
  br label %while.body

while.body:                                       ; preds = %while.body.lr.ph, %if.end16
  %nfds.016 = phi i64 [ %conv1, %while.body.lr.ph ], [ 0, %if.end16 ]
  %buf.addr.015 = phi ptr [ %buf, %while.body.lr.ph ], [ %add.ptr, %if.end16 ]
  %sz.addr.014 = phi i32 [ %sz, %while.body.lr.ph ], [ %conv18, %if.end16 ]
  store ptr %buf.addr.015, ptr %iov, align 8
  %conv4 = zext nneg i32 %sz.addr.014 to i64
  store i64 %conv4, ptr %iov_len, align 8
  %0 = load ptr, ptr %ioc, align 8
  %call.i = call ptr @object_dynamic_cast_assert(ptr noundef %0, ptr noundef nonnull @.str.8, ptr noundef nonnull @.str.9, i32 noundef 30, ptr noundef nonnull @__func__.QIO_CHANNEL) #7
  %tobool.not = icmp eq i64 %nfds.016, 0
  %fd.addr. = select i1 %tobool.not, ptr null, ptr %fd.addr
  %call5 = call i64 @qio_channel_writev_full(ptr noundef %call.i, ptr noundef nonnull %iov, i64 noundef 1, ptr noundef %fd.addr., i64 noundef %nfds.016, i32 noundef 0, ptr noundef %errp) #7
  %cmp6 = icmp slt i64 %call5, 1
  br i1 %cmp6, label %if.then, label %if.end16

if.then:                                          ; preds = %while.body
  %cmp8.not = icmp eq i64 %call5, -2
  br i1 %cmp8.not, label %if.else, label %if.end

if.else:                                          ; preds = %if.then
  call void @__assert_fail(ptr noundef nonnull @.str.10, ptr noundef nonnull @.str.2, i32 noundef 83, ptr noundef nonnull @__PRETTY_FUNCTION__.pr_manager_helper_write) #8
  unreachable

if.end:                                           ; preds = %if.then
  %1 = load ptr, ptr %ioc, align 8
  call void @object_unref(ptr noundef %1) #7
  store ptr null, ptr %ioc, align 8
  %call.i12 = call ptr @object_get_canonical_path_component(ptr noundef nonnull %pr_mgr) #7
  %tobool.not.i = icmp eq ptr %call.i12, null
  br i1 %tobool.not.i, label %pr_manager_send_status_changed_event.exit, label %if.then.i

if.then.i:                                        ; preds = %if.end
  %2 = load ptr, ptr %ioc, align 8
  %tobool1.i = icmp ne ptr %2, null
  call void @qapi_event_send_pr_manager_status_changed(ptr noundef nonnull %call.i12, i1 noundef zeroext %tobool1.i) #7
  br label %pr_manager_send_status_changed_event.exit

pr_manager_send_status_changed_event.exit:        ; preds = %if.end, %if.then.i
  %cmp13.not = icmp eq i64 %call5, 0
  %cond15 = select i1 %cmp13.not, i32 0, i32 -22
  br label %return

if.end16:                                         ; preds = %while.body
  %add.ptr = getelementptr i8, ptr %buf.addr.015, i64 %call5
  %3 = trunc i64 %call5 to i32
  %conv18 = sub i32 %sz.addr.014, %3
  %cmp2 = icmp sgt i32 %conv18, 0
  br i1 %cmp2, label %while.body, label %return, !llvm.loop !7

return:                                           ; preds = %if.end16, %entry, %pr_manager_send_status_changed_event.exit
  %retval.0 = phi i32 [ %cond15, %pr_manager_send_status_changed_event.exit ], [ 0, %entry ], [ 0, %if.end16 ]
  ret i32 %retval.0
}